; Function Attrs: mustprogress nounwind uwtable
define hidden noundef i64 @_ZN16XObjectAllocator27alloc_object_for_relocationEPK10XPageTablem(ptr nocapture noundef nonnull readonly align 8 dereferenceable(56) %0, ptr nocapture noundef readonly %1, i64 noundef %2) local_unnamed_addr #1 align 2 {
  %4 = tail call noundef i64 @_ZN16XObjectAllocator12alloc_objectEm16XAllocationFlags(ptr noundef nonnull align 8 dereferenceable(56) %0, i64 noundef %2, i8 1)
  %.not = icmp eq i64 %4, 0
  br i1 %.not, label %39, label %5

5:                                                ; preds = %3
  %6 = load i64, ptr @XAddressOffsetMask, align 8
  %7 = and i64 %6, %4
  %8 = lshr i64 %7, 21
  %9 = getelementptr inbounds i8, ptr %1, i64 8
  %10 = load ptr, ptr %9, align 8
  %11 = getelementptr inbounds ptr, ptr %10, i64 %8
  %12 = load ptr, ptr %11, align 8
  %13 = load i8, ptr %12, align 8
  switch i8 %13, label %_ZNK5XPage16object_alignmentEv.exit.i [
    i8 0, label %14
    i8 1, label %_ZNK5XPage16object_alignmentEv.exit.sink.split.i
  ]

14:                                               ; preds = %5
  %15 = load ptr, ptr @XObjectAlignmentSmall, align 8
  br label %_ZNK5XPage16object_alignmentEv.exit.sink.split.i

_ZNK5XPage16object_alignmentEv.exit.sink.split.i: ; preds = %14, %5
  %.sink5.i = phi ptr [ %15, %14 ], [ @XObjectAlignmentMedium, %5 ]
  %16 = load i32, ptr %.sink5.i, align 4
  %17 = sext i32 %16 to i64
  br label %_ZNK5XPage16object_alignmentEv.exit.i

_ZNK5XPage16object_alignmentEv.exit.i:            ; preds = %_ZNK5XPage16object_alignmentEv.exit.sink.split.i, %5
  %.0.i.i = phi i64 [ 2097152, %5 ], [ %17, %_ZNK5XPage16object_alignmentEv.exit.sink.split.i ]
  %18 = load ptr, ptr @_ZN4XCPU9_affinityE, align 8
  %19 = tail call align 4 ptr @llvm.threadlocal.address.p0(ptr align 4 @_ZN4XCPU4_cpuE)
  %20 = load i32, ptr %19, align 4
  %21 = zext i32 %20 to i64
  %22 = getelementptr inbounds %class.PaddedEnd, ptr %18, i64 %21
  %23 = load ptr, ptr %22, align 8
  %24 = tail call align 8 ptr @llvm.threadlocal.address.p0(ptr align 8 @_ZN4XCPU5_selfE)
  %25 = load ptr, ptr %24, align 8
  %26 = icmp eq ptr %23, %25
  br i1 %26, label %_ZN16XObjectAllocator29register_alloc_for_relocationEPK10XPageTablemm.exit, label %27

27:                                               ; preds = %_ZNK5XPage16object_alignmentEv.exit.i
  %28 = tail call noundef i32 @_ZN4XCPU7id_slowEv() #7
  %.pre.i = zext i32 %28 to i64
  br label %_ZN16XObjectAllocator29register_alloc_for_relocationEPK10XPageTablemm.exit

_ZN16XObjectAllocator29register_alloc_for_relocationEPK10XPageTablemm.exit: ; preds = %_ZNK5XPage16object_alignmentEv.exit.i, %27
  %.pre-phi.i = phi i64 [ %21, %_ZNK5XPage16object_alignmentEv.exit.i ], [ %.pre.i, %27 ]
  %29 = getelementptr inbounds i8, ptr %0, i64 24
  %30 = add i64 %2, -1
  %31 = add i64 %30, %.0.i.i
  %32 = sub nsw i64 0, %.0.i.i
  %33 = and i64 %31, %32
  %34 = load i64, ptr %29, align 8
  %35 = shl nuw nsw i64 %.pre-phi.i, 12
  %36 = add i64 %35, %34
  %37 = inttoptr i64 %36 to ptr
  %38 = tail call noundef i64 asm sideeffect "lock xaddq $0,($2)", "=r,0,r,~{cc},~{memory},~{dirflag},~{fpsr},~{flags}"(i64 %33, ptr %37) #7, !srcloc !9
  br label %39

39:                                               ; preds = %_ZN16XObjectAllocator29register_alloc_for_relocationEPK10XPageTablemm.exit, %3
  ret i64 %4
}